target datalayout = "e-m:e-p270:32:32-p271:32:32-p272:64:64-i64:64-i128:128-f80:128-n8:16:32:64-S128"
target triple = "x86_64-pc-linux-gnu"

%"class.icu_77::UMutex" = type { [40 x i8], %"struct.std::atomic", ptr }
%"struct.std::atomic" = type { %"struct.std::__atomic_base" }
%"struct.std::__atomic_base" = type { ptr }
%"class.icu_77::UnicodeString" = type { %"class.icu_77::Replaceable", %"union.icu_77::UnicodeString::StackBufferOrFields" }
%"class.icu_77::Replaceable" = type { %"class.icu_77::UObject" }
%"class.icu_77::UObject" = type { ptr }
%"union.icu_77::UnicodeString::StackBufferOrFields" = type { %struct.anon.0, [32 x i8] }
%struct.anon.0 = type { i16, i32, i32, ptr }
%"class.icu_77::DateIntervalFormat" = type <{ %"class.icu_77::Format", ptr, ptr, ptr, ptr, %"class.icu_77::Locale", %"class.icu_77::UnicodeString", [9 x %"struct.icu_77::DateIntervalFormat::PatternInfo"], ptr, ptr, ptr, i32, [4 x i8] }>
%"class.icu_77::Format" = type { %"class.icu_77::UObject", ptr, ptr }
%"class.icu_77::Locale" = type <{ %"class.icu_77::UObject", [12 x i8], [6 x i8], [4 x i8], [2 x i8], i32, [4 x i8], ptr, [157 x i8], [3 x i8], ptr, i8, [7 x i8] }>
%"struct.icu_77::DateIntervalFormat::PatternInfo" = type <{ %"class.icu_77::UnicodeString", %"class.icu_77::UnicodeString", i8, [7 x i8] }>
%"class.icu_77::Mutex" = type { ptr }

@_ZN6icu_77L15gFormatterMutexE = internal global %"class.icu_77::UMutex" zeroinitializer, align 8

; Function Attrs: mustprogress nounwind uwtable
define linkonce_odr void @_ZN6icu_775MutexD2Ev(ptr noundef nonnull align 8 dereferenceable(8) %0) unnamed_addr #0 comdat align 2 personality ptr @__gxx_personality_v0 {
  %2 = alloca ptr, align 8
  store ptr %0, ptr %2, align 8, !tbaa !70
  %3 = load ptr, ptr %2, align 8
  %4 = getelementptr inbounds nuw %"class.icu_77::Mutex", ptr %3, i32 0, i32 0
  %5 = load ptr, ptr %4, align 8, !tbaa !74
  invoke void @umtx_unlock_77(ptr noundef %5)
          to label %6 unwind label %7

6:                                                ; preds = %1
  ret void

7:                                                ; preds = %1
  %8 = landingpad { ptr, i32 }
          catch ptr null
  %9 = extractvalue { ptr, i32 } %8, 0
  call void @__clang_call_terminate(ptr %9) #14
  unreachable
}

; Function Attrs: mustprogress uwtable
define linkonce_odr void @_ZN6icu_775MutexC2EPNS_6UMutexE(ptr noundef nonnull align 8 dereferenceable(8) %0, ptr noundef %1) unnamed_addr #1 comdat align 2 {
  %3 = alloca ptr, align 8
  %4 = alloca ptr, align 8
  store ptr %0, ptr %3, align 8, !tbaa !70
  store ptr %1, ptr %4, align 8, !tbaa !72
  %5 = load ptr, ptr %3, align 8
  %6 = getelementptr inbounds nuw %"class.icu_77::Mutex", ptr %5, i32 0, i32 0
  %7 = load ptr, ptr %4, align 8, !tbaa !72
  store ptr %7, ptr %6, align 8, !tbaa !74
  %8 = getelementptr inbounds nuw %"class.icu_77::Mutex", ptr %5, i32 0, i32 0
  %9 = load ptr, ptr %8, align 8, !tbaa !74
  call void @umtx_lock_77(ptr noundef %9)
  ret void
}

; Function Attrs: mustprogress uwtable
define noundef nonnull align 8 dereferenceable(72) ptr @_ZNK6icu_7718DateIntervalFormat11getTimeZoneEv(ptr noundef nonnull align 8 dereferenceable(1596) %0) unnamed_addr #1 align 2 personality ptr @__gxx_personality_v0 {
  %2 = alloca ptr, align 8
  %3 = alloca ptr, align 8
  %4 = alloca %"class.icu_77::Mutex", align 8
  %5 = alloca ptr, align 8
  %6 = alloca i32, align 4
  store ptr %0, ptr %3, align 8, !tbaa !39
  %7 = load ptr, ptr %3, align 8
  %8 = getelementptr inbounds nuw %"class.icu_77::DateIntervalFormat", ptr %7, i32 0, i32 2
  %9 = load ptr, ptr %8, align 8, !tbaa !58
  %10 = icmp ne ptr %9, null
  br i1 %10, label %11, label %23

11:                                               ; preds = %1
  call void @llvm.lifetime.start.p0(i64 8, ptr %4) #12
  call void @_ZN6icu_775MutexC2EPNS_6UMutexE(ptr noundef nonnull align 8 dereferenceable(8) %4, ptr noundef @_ZN6icu_77L15gFormatterMutexE)
  %12 = getelementptr inbounds nuw %"class.icu_77::DateIntervalFormat", ptr %7, i32 0, i32 2
  %13 = load ptr, ptr %12, align 8, !tbaa !58
  %14 = load ptr, ptr %13, align 8, !tbaa !27
  %15 = getelementptr inbounds ptr, ptr %14, i64 22
  %16 = load ptr, ptr %15, align 8
  %17 = invoke noundef nonnull align 8 dereferenceable(72) ptr %16(ptr noundef nonnull align 8 dereferenceable(48) %13)
          to label %18 unwind label %19

18:                                               ; preds = %11
  store ptr %17, ptr %2, align 8
  call void @_ZN6icu_775MutexD2Ev(ptr noundef nonnull align 8 dereferenceable(8) %4) #12
  call void @llvm.lifetime.end.p0(i64 8, ptr %4) #12
  br label %25

19:                                               ; preds = %11
  %20 = landingpad { ptr, i32 }
          cleanup
  %21 = extractvalue { ptr, i32 } %20, 0
  store ptr %21, ptr %5, align 8
  %22 = extractvalue { ptr, i32 } %20, 1
  store i32 %22, ptr %6, align 4
  call void @_ZN6icu_775MutexD2Ev(ptr noundef nonnull align 8 dereferenceable(8) %4) #12
  call void @llvm.lifetime.end.p0(i64 8, ptr %4) #12
  br label %27

23:                                               ; preds = %1
  %24 = call noundef ptr @_ZN6icu_778TimeZone13createDefaultEv()
  store ptr %24, ptr %2, align 8
  br label %25

25:                                               ; preds = %23, %18
  %26 = load ptr, ptr %2, align 8
  ret ptr %26

27:                                               ; preds = %19
  %28 = load ptr, ptr %5, align 8
  %29 = load i32, ptr %6, align 4
  %30 = insertvalue { ptr, i32 } poison, ptr %28, 0
  %31 = insertvalue { ptr, i32 } %30, i32 %29, 1
  resume { ptr, i32 } %31
}