; Function Attrs: mustprogress uwtable
define noundef nonnull align 8 dereferenceable(72) ptr @_ZNK6icu_7718DateIntervalFormat11getTimeZoneEv(ptr noundef nonnull readonly align 8 captures(none) dereferenceable(1596) %0) unnamed_addr #1 align 2 personality ptr @__gxx_personality_v0 {
  %2 = getelementptr inbounds nuw i8, ptr %0, i64 32
  %3 = load ptr, ptr %2, align 8, !tbaa !48
  %.not = icmp eq ptr %3, null
  br i1 %.not, label %19, label %4

4:                                                ; preds = %1
  tail call void @umtx_lock_77(ptr noundef nonnull @_ZN6icu_77L15gFormatterMutexE)
  %5 = load ptr, ptr %2, align 8, !tbaa !48
  %6 = load ptr, ptr %5, align 8, !tbaa !15
  %7 = getelementptr inbounds nuw i8, ptr %6, i64 176
  %8 = load ptr, ptr %7, align 8
  %9 = invoke noundef nonnull align 8 dereferenceable(72) ptr %8(ptr noundef nonnull align 8 dereferenceable(48) %5)
          to label %10 unwind label %14

10:                                               ; preds = %4
  invoke void @umtx_unlock_77(ptr noundef nonnull @_ZN6icu_77L15gFormatterMutexE)
          to label %_ZN6icu_775MutexD2Ev.exit unwind label %11

11:                                               ; preds = %10
  %12 = landingpad { ptr, i32 }
          catch ptr null
  %13 = extractvalue { ptr, i32 } %12, 0
  tail call void @__clang_call_terminate(ptr %13) #21
  unreachable

14:                                               ; preds = %4
  %15 = landingpad { ptr, i32 }
          cleanup
  invoke void @umtx_unlock_77(ptr noundef nonnull @_ZN6icu_77L15gFormatterMutexE)
          to label %_ZN6icu_775MutexD2Ev.exit3 unwind label %16

16:                                               ; preds = %14
  %17 = landingpad { ptr, i32 }
          catch ptr null
  %18 = extractvalue { ptr, i32 } %17, 0
  tail call void @__clang_call_terminate(ptr %18) #21
  unreachable

_ZN6icu_775MutexD2Ev.exit3:                       ; preds = %14
  resume { ptr, i32 } %15

19:                                               ; preds = %1
  %20 = tail call noundef ptr @_ZN6icu_778TimeZone13createDefaultEv()
  br label %_ZN6icu_775MutexD2Ev.exit

_ZN6icu_775MutexD2Ev.exit:                        ; preds = %10, %19
  %.0 = phi ptr [ %20, %19 ], [ %9, %10 ]
  ret ptr %.0
}